target datalayout = "e-m:e-p270:32:32-p271:32:32-p272:64:64-i64:64-i128:128-f80:128-n8:16:32:64-S128"
target triple = "x86_64-pc-linux-gnu"

%"struct.std::array" = type { [9 x i32] }
%"class.open_spiel::phantom_go::Neighbours4" = type { i16, i16 }

@_ZN10open_spiel10phantom_go12_GLOBAL__N_14Dir8E = internal constant %"struct.std::array" { [9 x i32] [i32 21, i32 -1, i32 1, i32 -21, i32 20, i32 22, i32 -22, i32 -20, i32 0] }, align 4

; Function Attrs: mustprogress nounwind uwtable
define linkonce_odr noundef nonnull align 4 dereferenceable(4) ptr @_ZNSt14__array_traitsIiLm9EE6_S_refERA9_Kim(ptr noundef nonnull align 4 dereferenceable(36) %0, i64 noundef %1) #4 comdat align 2 {
  %3 = alloca ptr, align 8
  %4 = alloca i64, align 8
  store ptr %0, ptr %3, align 8
  store i64 %1, ptr %4, align 8
  %5 = load ptr, ptr %3, align 8
  %6 = load i64, ptr %4, align 8
  %7 = getelementptr inbounds [9 x i32], ptr %5, i64 0, i64 %6
  ret ptr %7
}

; Function Attrs: mustprogress nounwind uwtable
define linkonce_odr noundef nonnull align 4 dereferenceable(4) ptr @_ZNKSt5arrayIiLm9EEixEm(ptr noundef nonnull align 4 dereferenceable(36) %0, i64 noundef %1) #4 comdat align 2 {
  %3 = alloca ptr, align 8
  %4 = alloca i64, align 8
  store ptr %0, ptr %3, align 8
  store i64 %1, ptr %4, align 8
  %5 = load ptr, ptr %3, align 8
  %6 = getelementptr inbounds nuw %"struct.std::array", ptr %5, i32 0, i32 0
  %7 = load i64, ptr %4, align 8
  %8 = call noundef nonnull align 4 dereferenceable(4) ptr @_ZNSt14__array_traitsIiLm9EE6_S_refERA9_Kim(ptr noundef nonnull align 4 dereferenceable(36) %6, i64 noundef %7) #3
  ret ptr %8
}

; Function Attrs: mustprogress nounwind uwtable
define noundef zeroext i16 @_ZNK10open_spiel10phantom_go11Neighbours4deEv(ptr noundef nonnull align 2 dereferenceable(4) %0) #4 align 2 {
  %2 = alloca ptr, align 8
  store ptr %0, ptr %2, align 8
  %3 = load ptr, ptr %2, align 8
  %4 = getelementptr inbounds nuw %"class.open_spiel::phantom_go::Neighbours4", ptr %3, i32 0, i32 1
  %5 = load i16, ptr %4, align 2
  %6 = zext i16 %5 to i32
  %7 = getelementptr inbounds nuw %"class.open_spiel::phantom_go::Neighbours4", ptr %3, i32 0, i32 0
  %8 = load i16, ptr %7, align 2
  %9 = zext i16 %8 to i64
  %10 = call noundef nonnull align 4 dereferenceable(4) ptr @_ZNKSt5arrayIiLm9EEixEm(ptr noundef nonnull align 4 dereferenceable(36) @_ZN10open_spiel10phantom_go12_GLOBAL__N_14Dir8E, i64 noundef %9) #3
  %11 = load i32, ptr %10, align 4
  %12 = add nsw i32 %6, %11
  %13 = trunc i32 %12 to i16
  ret i16 %13
}