; Function Attrs: mustprogress nofree norecurse nosync nounwind willreturn memory(argmem: read) uwtable
define noundef zeroext i16 @_ZNK10open_spiel10phantom_go11Neighbours4deEv(ptr nocapture noundef nonnull readonly align 2 dereferenceable(4) %0) local_unnamed_addr #5 align 2 {
  %2 = getelementptr inbounds nuw i8, ptr %0, i64 2
  %3 = load i16, ptr %2, align 2
  %4 = load i16, ptr %0, align 2
  %5 = zext i16 %4 to i64
  %6 = getelementptr inbounds [9 x i32], ptr @_ZN10open_spiel10phantom_go12_GLOBAL__N_14Dir8E, i64 0, i64 %5
  %7 = load i32, ptr %6, align 4
  %8 = trunc i32 %7 to i16
  %9 = add i16 %3, %8
  ret i16 %9
}